; Function Attrs: mustprogress nofree norecurse nosync nounwind willreturn memory(readwrite, inaccessiblemem: none) uwtable
define hidden void @_ZN9Assembler9kshiftrwlE9KRegisterS0_i(ptr noundef nonnull align 8 dereferenceable(40) %0, i32 %1, i32 %2, i32 noundef %3) local_unnamed_addr #8 align 2 {
  %5 = alloca %class.InstructionAttr, align 8
  store <8 x i8> <i8 1, i8 1, i8 1, i8 0, i8 0, i8 0, i8 1, i8 0>, ptr %5, align 8
  %6 = getelementptr inbounds i8, ptr %5, i64 8
  store <4 x i32> <i32 0, i32 24, i32 4, i32 0>, ptr %6, align 8
  %7 = getelementptr inbounds i8, ptr %5, i64 24
  store i32 0, ptr %7, align 8
  %8 = getelementptr inbounds i8, ptr %5, i64 32
  store ptr null, ptr %8, align 8
  %9 = sext i32 %1 to i64
  %10 = getelementptr inbounds %"class.KRegister::KRegisterImpl", ptr getelementptr inbounds (i8, ptr @all_KRegisterImpls, i64 1), i64 %9
  %11 = ptrtoint ptr %10 to i64
  %12 = trunc i64 %11 to i32
  %13 = sub i32 %12, ptrtoint (ptr getelementptr inbounds (i8, ptr @all_KRegisterImpls, i64 1) to i32)
  %14 = sext i32 %2 to i64
  %15 = getelementptr inbounds %"class.KRegister::KRegisterImpl", ptr getelementptr inbounds (i8, ptr @all_KRegisterImpls, i64 1), i64 %14
  %16 = ptrtoint ptr %15 to i64
  %17 = trunc i64 %16 to i32
  %18 = sub i32 %17, ptrtoint (ptr getelementptr inbounds (i8, ptr @all_KRegisterImpls, i64 1) to i32)
  %19 = call noundef i32 @_ZN9Assembler21vex_prefix_and_encodeEiiiNS_13VexSimdPrefixENS_9VexOpcodeEP15InstructionAttrb(ptr noundef nonnull align 8 dereferenceable(40) %0, i32 noundef %13, i32 noundef 0, i32 noundef %18, i32 noundef 1, i32 noundef 3, ptr noundef nonnull %5, i1 noundef zeroext false)
  %20 = getelementptr inbounds i8, ptr %0, i64 8
  %21 = load ptr, ptr %20, align 8
  %22 = trunc nuw nsw i32 %19 to i8
  %.0.i2.i = or disjoint i8 %22, -64
  %23 = getelementptr inbounds i8, ptr %21, i64 16
  %24 = load ptr, ptr %23, align 8
  %25 = getelementptr inbounds i8, ptr %24, i64 1
  store i8 48, ptr %24, align 1
  %26 = getelementptr inbounds i8, ptr %24, i64 2
  store i8 %.0.i2.i, ptr %25, align 1
  store ptr %26, ptr %23, align 8
  %27 = load ptr, ptr %20, align 8
  %.0.i.i = trunc i32 %3 to i8
  %28 = getelementptr inbounds i8, ptr %27, i64 16
  %29 = load ptr, ptr %28, align 8
  %30 = getelementptr inbounds i8, ptr %29, i64 1
  store i8 %.0.i.i, ptr %29, align 1
  store ptr %30, ptr %28, align 8
  %31 = load ptr, ptr %8, align 8
  %.not.i = icmp eq ptr %31, null
  br i1 %.not.i, label %_ZN15InstructionAttrD2Ev.exit, label %32

32:                                               ; preds = %4
  %33 = getelementptr inbounds i8, ptr %31, i64 32
  store ptr null, ptr %33, align 8
  br label %_ZN15InstructionAttrD2Ev.exit

_ZN15InstructionAttrD2Ev.exit:                    ; preds = %4, %32
  ret void
}